target datalayout = "e-m:e-p270:32:32-p271:32:32-p272:64:64-i64:64-i128:128-f80:128-n8:16:32:64-S128"
target triple = "x86_64-pc-linux-gnu"

%union.pthread_mutex_t = type { %struct.__pthread_mutex_s }
%struct.__pthread_mutex_s = type { i32, i32, i32, i32, i32, i16, i16, %struct.__pthread_internal_list }
%struct.__pthread_internal_list = type { ptr, ptr }
%struct.slurm_conf_t = type { i64, ptr, i16, ptr, ptr, ptr, ptr, ptr, i16, ptr, ptr, ptr, ptr, ptr, ptr, ptr, i16, ptr, ptr, ptr, ptr, i16, ptr, ptr, ptr, i64, ptr, ptr, ptr, ptr, i16, ptr, ptr, i16, i32, ptr, i32, ptr, i32, i32, ptr, ptr, i64, i64, ptr, i16, i16, ptr, i32, i32, ptr, i32, ptr, i32, i16, i16, i16, ptr, i16, i16, ptr, ptr, i32, i16, i16, ptr, i32, i16, ptr, ptr, ptr, ptr, i16, ptr, ptr, ptr, ptr, i32, ptr, ptr, ptr, ptr, i16, i16, ptr, i32, i32, i32, i16, i16, ptr, ptr, i16, ptr, ptr, i32, i32, i32, i32, i32, i64, i32, i32, i16, ptr, ptr, i32, ptr, ptr, ptr, i16, i32, ptr, ptr, i16, ptr, ptr, i32, i16, ptr, ptr, ptr, ptr, i32, i32, i16, i16, i32, ptr, i16, ptr, i32, i32, i32, i32, i32, i32, ptr, i16, ptr, ptr, i32, i16, ptr, i32, i16, i16, ptr, ptr, ptr, i16, ptr, ptr, ptr, ptr, i16, i16, ptr, i16, ptr, i16, ptr, i16, ptr, i16, ptr, ptr, ptr, ptr, i16, ptr, ptr, ptr, i32, ptr, i32, ptr, ptr, i16, ptr, ptr, i32, i16, ptr, ptr, i16, i16, ptr, i16, ptr, ptr, ptr, i32, ptr, i16, i16, ptr, ptr, ptr, ptr, ptr, ptr, ptr, ptr, i16, i32, i16, ptr, ptr, ptr, ptr, i32, ptr, ptr, ptr, i16, ptr, ptr, ptr, i16, ptr, i16, ptr, i16, i16, ptr }
%struct.anon.0 = type { %union.pthread_mutex_t, i32, ptr, ptr, i8 }
%struct.slurm_msg = type { %struct.sockaddr_storage, ptr, i32, i32, i32, i8, i32, i8, i32, ptr, ptr, i32, ptr, ptr, i16, i8, i16, i16, %struct.forward, ptr, %struct.sockaddr_storage, ptr }
%struct.forward = type { %struct.slurm_node_alias_addrs_t, i16, i16, ptr, i32, i16, i16 }
%struct.slurm_node_alias_addrs_t = type { i64, ptr, ptr, i32, ptr }
%struct.sockaddr_storage = type { i16, [118 x i8], i64 }

@slurm_conf = external global %struct.slurm_conf_t, align 8
@.str.43 = private unnamed_addr constant [29 x i8] c"%s: pthread_mutex_lock(): %m\00", align 1
@.str.44 = private unnamed_addr constant [31 x i8] c"%s: pthread_mutex_unlock(): %m\00", align 1
@listeners = internal global { %union.pthread_mutex_t, i32, [4 x i8], ptr, ptr, i8, [7 x i8] } zeroinitializer, align 8
@.str.146 = private unnamed_addr constant [60 x i8] c"%s: [%s] rejecting malformed RPC and closing connection: %s\00", align 1
@__func__._on_msg = private unnamed_addr constant [8 x i8] c"_on_msg\00", align 1
@.str.147 = private unnamed_addr constant [25 x i8] c"this should never happen\00", align 1
@.str.148 = private unnamed_addr constant [61 x i8] c"AUDIT_RPCS: [%s] msg_type=%s uid=%u client=[%pA] protocol=%u\00", align 1
@.str.149 = private unnamed_addr constant [20 x i8] c"_service_connection\00", align 1
@.str.150 = private unnamed_addr constant [35 x i8] c"%s: [%s] Extracting FDs failed: %s\00", align 1
@__func__._on_primary_msg = private unnamed_addr constant [16 x i8] c"_on_primary_msg\00", align 1

; Function Attrs: nounwind uwtable
define internal i32 @_on_primary_msg(ptr noundef %0, ptr noundef %1, ptr noundef %2) #0 {
  %4 = alloca ptr, align 8
  %5 = alloca ptr, align 8
  %6 = alloca ptr, align 8
  %7 = alloca i32, align 4
  store ptr %0, ptr %4, align 8
  store ptr %1, ptr %5, align 8
  store ptr %2, ptr %6, align 8
  call void @llvm.lifetime.start.p0(i64 4, ptr %7) #11
  store i32 0, ptr %7, align 4
  %8 = load ptr, ptr %5, align 8
  %9 = getelementptr inbounds nuw %struct.slurm_msg, ptr %8, i32 0, i32 5
  %10 = load i8, ptr %9, align 4, !range !8, !noundef !9
  %11 = trunc i8 %10 to i1
  br i1 %11, label %13, label %12

12:                                               ; preds = %3
  call void (ptr, ...) @fatal_abort(ptr noundef @.str.147) #12
  unreachable

13:                                               ; preds = %3
  br label %14

14:                                               ; preds = %13
  %15 = load i64, ptr getelementptr inbounds nuw (%struct.slurm_conf_t, ptr @slurm_conf, i32 0, i32 42), align 8
  %16 = and i64 %15, 33554432
  %17 = icmp ne i64 %16, 0
  br i1 %17, label %18, label %41

18:                                               ; preds = %14
  br label %19

19:                                               ; preds = %18
  %20 = call i32 @get_log_level()
  %21 = icmp sge i32 %20, 4
  br i1 %21, label %22, label %38

22:                                               ; preds = %19
  %23 = load ptr, ptr %4, align 8
  %24 = call ptr @conmgr_fd_get_name(ptr noundef %23)
  %25 = load ptr, ptr %5, align 8
  %26 = getelementptr inbounds nuw %struct.slurm_msg, ptr %25, i32 0, i32 16
  %27 = load i16, ptr %26, align 4
  %28 = call ptr @rpc_num2string(i16 noundef zeroext %27)
  %29 = load ptr, ptr %5, align 8
  %30 = getelementptr inbounds nuw %struct.slurm_msg, ptr %29, i32 0, i32 3
  %31 = load i32, ptr %30, align 4
  %32 = load ptr, ptr %5, align 8
  %33 = getelementptr inbounds nuw %struct.slurm_msg, ptr %32, i32 0, i32 0
  %34 = load ptr, ptr %5, align 8
  %35 = getelementptr inbounds nuw %struct.slurm_msg, ptr %34, i32 0, i32 17
  %36 = load i16, ptr %35, align 2
  %37 = zext i16 %36 to i32
  call void (i32, ptr, ...) @log_var(i32 noundef 4, ptr noundef @.str.148, ptr noundef %24, ptr noundef %28, i32 noundef %31, ptr noundef %33, i32 noundef %37)
  br label %38

38:                                               ; preds = %22, %19
  br label %39

39:                                               ; preds = %38
  br label %40

40:                                               ; preds = %39
  br label %41

41:                                               ; preds = %40, %14
  br label %42

42:                                               ; preds = %41
  br label %43

43:                                               ; preds = %42
  %44 = load ptr, ptr %5, align 8
  %45 = call zeroext i1 @rate_limit_exceeded(ptr noundef %44)
  br i1 %45, label %46, label %51

46:                                               ; preds = %43
  store i32 1804, ptr %7, align 4
  %47 = load ptr, ptr %5, align 8
  %48 = load i32, ptr %7, align 4
  %49 = call i32 @slurm_send_rc_msg(ptr noundef %47, i32 noundef %48)
  %50 = load ptr, ptr %5, align 8
  call void @slurm_free_msg(ptr noundef %50)
  br label %63

51:                                               ; preds = %43
  %52 = load ptr, ptr %4, align 8
  %53 = load ptr, ptr %5, align 8
  %54 = call i32 @conmgr_queue_extract_con_fd(ptr noundef %52, ptr noundef @_service_connection, ptr noundef @.str.149, ptr noundef %53)
  store i32 %54, ptr %7, align 4
  %55 = icmp ne i32 %54, 0
  br i1 %55, label %56, label %62

56:                                               ; preds = %51
  %57 = load ptr, ptr %4, align 8
  %58 = call ptr @conmgr_fd_get_name(ptr noundef %57)
  %59 = load i32, ptr %7, align 4
  %60 = call ptr @slurm_strerror(i32 noundef %59)
  %61 = call i32 (ptr, ...) @error(ptr noundef @.str.150, ptr noundef @__func__._on_primary_msg, ptr noundef %58, ptr noundef %60)
  br label %62

62:                                               ; preds = %56, %51
  br label %63

63:                                               ; preds = %62, %46
  %64 = load i32, ptr %7, align 4
  call void @llvm.lifetime.end.p0(i64 4, ptr %7) #11
  ret i32 %64
}

; Function Attrs: nounwind uwtable
define internal i32 @_on_msg(ptr noundef %0, ptr noundef %1, i32 noundef %2, ptr noundef %3) #0 {
  %5 = alloca i32, align 4
  %6 = alloca ptr, align 8
  %7 = alloca ptr, align 8
  %8 = alloca i32, align 4
  %9 = alloca ptr, align 8
  %10 = alloca i8, align 1
  %11 = alloca i32, align 4
  %12 = alloca i32, align 4
  %13 = alloca i32, align 4
  store ptr %0, ptr %6, align 8
  store ptr %1, ptr %7, align 8
  store i32 %2, ptr %8, align 4
  store ptr %3, ptr %9, align 8
  call void @llvm.lifetime.start.p0(i64 1, ptr %10) #11
  %14 = load i32, ptr %8, align 4
  %15 = icmp eq i32 %14, 1007
  br i1 %15, label %21, label %16

16:                                               ; preds = %4
  %17 = load ptr, ptr %7, align 8
  %18 = getelementptr inbounds nuw %struct.slurm_msg, ptr %17, i32 0, i32 5
  %19 = load i8, ptr %18, align 4, !range !8, !noundef !9
  %20 = trunc i8 %19 to i1
  br i1 %20, label %31, label %21

21:                                               ; preds = %16, %4
  %22 = load ptr, ptr %7, align 8
  %23 = getelementptr inbounds nuw %struct.slurm_msg, ptr %22, i32 0, i32 14
  %24 = load i16, ptr %23, align 8
  %25 = zext i16 %24 to i64
  %26 = or i64 %25, 64
  %27 = trunc i64 %26 to i16
  store i16 %27, ptr %23, align 8
  %28 = load ptr, ptr %7, align 8
  %29 = call i32 @slurm_send_rc_msg(ptr noundef %28, i32 noundef 1007)
  %30 = load ptr, ptr %7, align 8
  call void @slurm_free_msg(ptr noundef %30)
  store i32 0, ptr %5, align 4
  store i32 1, ptr %11, align 4
  br label %79

31:                                               ; preds = %16
  %32 = load i32, ptr %8, align 4
  %33 = icmp ne i32 %32, 0
  br i1 %33, label %34, label %42

34:                                               ; preds = %31
  %35 = load ptr, ptr %6, align 8
  %36 = call ptr @conmgr_fd_get_name(ptr noundef %35)
  %37 = load i32, ptr %8, align 4
  %38 = call ptr @slurm_strerror(i32 noundef %37)
  %39 = call i32 (ptr, ...) @error(ptr noundef @.str.146, ptr noundef @__func__._on_msg, ptr noundef %36, ptr noundef %38)
  %40 = load ptr, ptr %7, align 8
  call void @slurm_free_msg(ptr noundef %40)
  %41 = load i32, ptr %8, align 4
  store i32 %41, ptr %5, align 4
  store i32 1, ptr %11, align 4
  br label %79

42:                                               ; preds = %31
  br label %43

43:                                               ; preds = %42
  br label %44

44:                                               ; preds = %43
  call void @llvm.lifetime.start.p0(i64 4, ptr %12) #11
  %45 = call i32 @pthread_mutex_lock(ptr noundef @listeners) #11
  store i32 %45, ptr %12, align 4
  %46 = load i32, ptr %12, align 4
  %47 = icmp ne i32 %46, 0
  br i1 %47, label %48, label %51

48:                                               ; preds = %44
  %49 = load i32, ptr %12, align 4
  %50 = call ptr @__errno_location() #14
  store i32 %49, ptr %50, align 4
  call void (ptr, ...) @fatal_abort(ptr noundef @.str.43, ptr noundef @__func__._on_msg) #12
  unreachable

51:                                               ; preds = %44
  call void @llvm.lifetime.end.p0(i64 4, ptr %12) #11
  br label %52

52:                                               ; preds = %51
  br label %53

53:                                               ; preds = %52
  %54 = load i8, ptr getelementptr inbounds nuw (%struct.anon.0, ptr @listeners, i32 0, i32 4), align 8, !range !8, !noundef !9
  %55 = trunc i8 %54 to i1
  %56 = zext i1 %55 to i8
  store i8 %56, ptr %10, align 1
  br label %57

57:                                               ; preds = %53
  call void @llvm.lifetime.start.p0(i64 4, ptr %13) #11
  %58 = call i32 @pthread_mutex_unlock(ptr noundef @listeners) #11
  store i32 %58, ptr %13, align 4
  %59 = load i32, ptr %13, align 4
  %60 = icmp ne i32 %59, 0
  br i1 %60, label %61, label %64

61:                                               ; preds = %57
  %62 = load i32, ptr %13, align 4
  %63 = call ptr @__errno_location() #14
  store i32 %62, ptr %63, align 4
  call void (ptr, ...) @fatal_abort(ptr noundef @.str.44, ptr noundef @__func__._on_msg) #12
  unreachable

64:                                               ; preds = %57
  call void @llvm.lifetime.end.p0(i64 4, ptr %13) #11
  br label %65

65:                                               ; preds = %64
  br label %66

66:                                               ; preds = %65
  %67 = load i8, ptr %10, align 1, !range !8, !noundef !9
  %68 = trunc i8 %67 to i1
  br i1 %68, label %74, label %69

69:                                               ; preds = %66
  %70 = load ptr, ptr %6, align 8
  %71 = load ptr, ptr %7, align 8
  %72 = load ptr, ptr %9, align 8
  %73 = call i32 @_on_primary_msg(ptr noundef %70, ptr noundef %71, ptr noundef %72)
  store i32 %73, ptr %5, align 4
  store i32 1, ptr %11, align 4
  br label %79

74:                                               ; preds = %66
  %75 = load ptr, ptr %6, align 8
  %76 = load ptr, ptr %7, align 8
  %77 = load ptr, ptr %9, align 8
  %78 = call i32 @on_backup_msg(ptr noundef %75, ptr noundef %76, ptr noundef %77)
  store i32 %78, ptr %5, align 4
  store i32 1, ptr %11, align 4
  br label %79

79:                                               ; preds = %74, %69, %34, %21
  call void @llvm.lifetime.end.p0(i64 1, ptr %10) #11
  %80 = load i32, ptr %5, align 4
  ret i32 %80
}