; Function Attrs: nounwind uwtable
define internal i32 @_on_msg(ptr noundef %0, ptr noundef %1, i32 noundef %2, ptr noundef %3) #6 {
  %5 = icmp eq i32 %2, 1007
  br i1 %5, label %10, label %6

6:                                                ; preds = %4
  %7 = getelementptr inbounds nuw i8, ptr %1, i64 148
  %8 = load i8, ptr %7, align 4, !range !12, !noundef !13
  %9 = trunc nuw i8 %8 to i1
  br i1 %9, label %15, label %10

10:                                               ; preds = %6, %4
  %11 = getelementptr inbounds nuw i8, ptr %1, i64 208
  %12 = load i16, ptr %11, align 8
  %13 = or i16 %12, 64
  store i16 %13, ptr %11, align 8
  %14 = tail call i32 @slurm_send_rc_msg(ptr noundef %1, i32 noundef 1007) #19
  tail call void @slurm_free_msg(ptr noundef %1) #19
  br label %_on_primary_msg.exit

15:                                               ; preds = %6
  %.not = icmp eq i32 %2, 0
  br i1 %.not, label %20, label %16

16:                                               ; preds = %15
  %17 = tail call ptr @conmgr_fd_get_name(ptr noundef %0) #19
  %18 = tail call ptr @slurm_strerror(i32 noundef %2) #19
  %19 = tail call i32 (ptr, ...) @error(ptr noundef nonnull @.str.146, ptr noundef nonnull @__func__._on_msg, ptr noundef %17, ptr noundef %18) #19
  tail call void @slurm_free_msg(ptr noundef nonnull %1) #19
  br label %_on_primary_msg.exit

20:                                               ; preds = %15
  %21 = tail call i32 @pthread_mutex_lock(ptr noundef nonnull @listeners) #19
  %.not24 = icmp eq i32 %21, 0
  br i1 %.not24, label %24, label %22

22:                                               ; preds = %20
  %23 = tail call ptr @__errno_location() #21
  store i32 %21, ptr %23, align 4
  tail call void (ptr, ...) @fatal_abort(ptr noundef nonnull @.str.43, ptr noundef nonnull @__func__._on_msg) #20
  unreachable

24:                                               ; preds = %20
  %25 = load i8, ptr getelementptr inbounds nuw (i8, ptr @listeners, i64 64), align 8, !range !12, !noundef !13
  %26 = tail call i32 @pthread_mutex_unlock(ptr noundef nonnull @listeners) #19
  %.not25 = icmp eq i32 %26, 0
  br i1 %.not25, label %29, label %27

27:                                               ; preds = %24
  %28 = tail call ptr @__errno_location() #21
  store i32 %26, ptr %28, align 4
  tail call void (ptr, ...) @fatal_abort(ptr noundef nonnull @.str.44, ptr noundef nonnull @__func__._on_msg) #20
  unreachable

29:                                               ; preds = %24
  %30 = trunc nuw i8 %25 to i1
  br i1 %30, label %61, label %31

31:                                               ; preds = %29
  %32 = load i8, ptr %7, align 4, !range !12, !noundef !13
  %33 = trunc nuw i8 %32 to i1
  br i1 %33, label %35, label %34

34:                                               ; preds = %31
  tail call void (ptr, ...) @fatal_abort(ptr noundef nonnull @.str.147) #20
  unreachable

35:                                               ; preds = %31
  %36 = load i64, ptr getelementptr inbounds nuw (i8, ptr @slurm_conf, i64 320), align 8
  %37 = and i64 %36, 33554432
  %.not.i = icmp eq i64 %37, 0
  br i1 %.not.i, label %51, label %38

38:                                               ; preds = %35
  %39 = tail call i32 @get_log_level() #19
  %40 = icmp sgt i32 %39, 3
  br i1 %40, label %41, label %51

41:                                               ; preds = %38
  %42 = tail call ptr @conmgr_fd_get_name(ptr noundef %0) #19
  %43 = getelementptr inbounds nuw i8, ptr %1, i64 212
  %44 = load i16, ptr %43, align 4
  %45 = tail call ptr @rpc_num2string(i16 noundef zeroext %44) #19
  %46 = getelementptr inbounds nuw i8, ptr %1, i64 140
  %47 = load i32, ptr %46, align 4
  %48 = getelementptr inbounds nuw i8, ptr %1, i64 214
  %49 = load i16, ptr %48, align 2
  %50 = zext i16 %49 to i32
  tail call void (i32, ptr, ...) @log_var(i32 noundef 4, ptr noundef nonnull @.str.148, ptr noundef %42, ptr noundef %45, i32 noundef %47, ptr noundef nonnull %1, i32 noundef %50) #19
  br label %51

51:                                               ; preds = %41, %38, %35
  %52 = tail call zeroext i1 @rate_limit_exceeded(ptr noundef nonnull %1) #19
  br i1 %52, label %53, label %55

53:                                               ; preds = %51
  %54 = tail call i32 @slurm_send_rc_msg(ptr noundef nonnull %1, i32 noundef 1804) #19
  tail call void @slurm_free_msg(ptr noundef nonnull %1) #19
  br label %_on_primary_msg.exit

55:                                               ; preds = %51
  %56 = tail call i32 @conmgr_queue_extract_con_fd(ptr noundef %0, ptr noundef nonnull @_service_connection, ptr noundef nonnull @.str.149, ptr noundef nonnull %1) #19
  %.not15.i = icmp eq i32 %56, 0
  br i1 %.not15.i, label %_on_primary_msg.exit, label %57

57:                                               ; preds = %55
  %58 = tail call ptr @conmgr_fd_get_name(ptr noundef %0) #19
  %59 = tail call ptr @slurm_strerror(i32 noundef %56) #19
  %60 = tail call i32 (ptr, ...) @error(ptr noundef nonnull @.str.150, ptr noundef nonnull @__func__._on_primary_msg, ptr noundef %58, ptr noundef %59) #19
  br label %_on_primary_msg.exit

61:                                               ; preds = %29
  %62 = tail call i32 @on_backup_msg(ptr noundef %0, ptr noundef nonnull %1, ptr noundef %3) #19
  br label %_on_primary_msg.exit

_on_primary_msg.exit:                             ; preds = %57, %55, %53, %61, %16, %10
  %.0 = phi i32 [ 0, %10 ], [ %2, %16 ], [ %62, %61 ], [ 1804, %53 ], [ %56, %57 ], [ 0, %55 ]
  ret i32 %.0
}